#include <math.h>
#include <stdio.h>
#include <stdlib.h>
#include <string.h>

int main(){
int n,i,q;
char a[1000][256];
scanf("%d",&n);
for(i=0;i<n;i++){
scanf("%s",a[i]);
for(q=0;a[i][q]!='\0';q++){
if(a[i][q]=='A')
{
	a[i][q]='T';
}
else if(a[i][q]=='T'){
a[i][q]='A';
}
else if(a[i][q]=='C'){
a[i][q]='G';
}
else{
a[i][q]='C';

}

}
printf("%s",a[i]);
printf("\n");
}
return 0;

}